; Function Attrs: nounwind uwtable
define dso_local ptr @heap_copy_minimal_tuple(ptr noundef readonly captures(none) %0) local_unnamed_addr #0 {
  %2 = load i32, ptr %0, align 4
  %3 = zext i32 %2 to i64
  %4 = tail call ptr @palloc(i64 noundef %3) #12
  %5 = load i32, ptr %0, align 4
  %6 = zext i32 %5 to i64
  tail call void @llvm.memcpy.p0.p0.i64(ptr align 4 %4, ptr nonnull align 4 %0, i64 %6, i1 false)
  ret ptr %4
}